target datalayout = "e-m:e-p270:32:32-p271:32:32-p272:64:64-i64:64-i128:128-f80:128-n8:16:32:64-S128"
target triple = "x86_64-pc-linux-gnu"

%struct.AVFilterContext = type { ptr, ptr, ptr, ptr, ptr, i32, ptr, ptr, i32, ptr, ptr, i32, i32, ptr, ptr, ptr, ptr, i32, ptr, i32, i32 }
%struct.AudioIIRContext = type { ptr, ptr, ptr, ptr, double, double, double, i32, i32, i32, i32, i32, i32, i32, i32, %struct.AVRational, ptr, ptr, i32, i32, ptr }
%struct.AVRational = type { i32, i32 }
%struct.IIRChannel = type { [2 x i32], [2 x ptr], double, [2 x ptr], double, ptr, i32 }
%struct.ThreadData = type { ptr, ptr }
%struct.AVChannelLayout = type { i32, i32, %union.anon.1, ptr }
%union.anon.1 = type { i64 }
%struct.AVFrame = type { [8 x ptr], [8 x i32], ptr, i32, i32, i32, i32, i32, %struct.AVRational, i64, i64, %struct.AVRational, i32, ptr, i32, i32, [8 x ptr], ptr, i32, ptr, i32, i32, i32, i32, i32, i32, i32, i64, ptr, i32, ptr, ptr, i64, i64, i64, i64, ptr, %struct.AVChannelLayout, i64 }

; Function Attrs: nounwind uwtable
define internal i32 @iir_ch_lattice_s16p(ptr noundef %0, ptr noundef %1, i32 noundef %2, i32 noundef %3) #1 {
  %5 = alloca ptr, align 8
  %6 = alloca ptr, align 8
  %7 = alloca i32, align 4
  %8 = alloca i32, align 4
  %9 = alloca ptr, align 8
  %10 = alloca double, align 8
  %11 = alloca double, align 8
  %12 = alloca double, align 8
  %13 = alloca ptr, align 8
  %14 = alloca ptr, align 8
  %15 = alloca ptr, align 8
  %16 = alloca ptr, align 8
  %17 = alloca double, align 8
  %18 = alloca double, align 8
  %19 = alloca double, align 8
  %20 = alloca ptr, align 8
  %21 = alloca i32, align 4
  %22 = alloca ptr, align 8
  %23 = alloca ptr, align 8
  %24 = alloca double, align 8
  %25 = alloca ptr, align 8
  %26 = alloca ptr, align 8
  %27 = alloca i32, align 4
  %28 = alloca double, align 8
  %29 = alloca double, align 8
  %30 = alloca i32, align 4
  store ptr %0, ptr %5, align 8, !tbaa !4
  store ptr %1, ptr %6, align 8, !tbaa !45
  store i32 %2, ptr %7, align 4, !tbaa !43
  store i32 %3, ptr %8, align 4, !tbaa !43
  call void @llvm.lifetime.start.p0(i64 8, ptr %9) #12
  %31 = load ptr, ptr %5, align 8, !tbaa !4
  %32 = getelementptr inbounds nuw %struct.AVFilterContext, ptr %31, i32 0, i32 9
  %33 = load ptr, ptr %32, align 8, !tbaa !9
  store ptr %33, ptr %9, align 8, !tbaa !22
  call void @llvm.lifetime.start.p0(i64 8, ptr %10) #12
  %34 = load ptr, ptr %9, align 8, !tbaa !22
  %35 = getelementptr inbounds nuw %struct.AudioIIRContext, ptr %34, i32 0, i32 4
  %36 = load double, ptr %35, align 8, !tbaa !153
  store double %36, ptr %10, align 8, !tbaa !95
  call void @llvm.lifetime.start.p0(i64 8, ptr %11) #12
  %37 = load ptr, ptr %9, align 8, !tbaa !22
  %38 = getelementptr inbounds nuw %struct.AudioIIRContext, ptr %37, i32 0, i32 5
  %39 = load double, ptr %38, align 8, !tbaa !154
  store double %39, ptr %11, align 8, !tbaa !95
  call void @llvm.lifetime.start.p0(i64 8, ptr %12) #12
  %40 = load ptr, ptr %9, align 8, !tbaa !22
  %41 = getelementptr inbounds nuw %struct.AudioIIRContext, ptr %40, i32 0, i32 6
  %42 = load double, ptr %41, align 8, !tbaa !155
  store double %42, ptr %12, align 8, !tbaa !95
  call void @llvm.lifetime.start.p0(i64 8, ptr %13) #12
  %43 = load ptr, ptr %6, align 8, !tbaa !45
  store ptr %43, ptr %13, align 8, !tbaa !156
  call void @llvm.lifetime.start.p0(i64 8, ptr %14) #12
  %44 = load ptr, ptr %13, align 8, !tbaa !156
  %45 = getelementptr inbounds nuw %struct.ThreadData, ptr %44, i32 0, i32 0
  %46 = load ptr, ptr %45, align 8, !tbaa !75
  store ptr %46, ptr %14, align 8, !tbaa !60
  call void @llvm.lifetime.start.p0(i64 8, ptr %15) #12
  %47 = load ptr, ptr %13, align 8, !tbaa !156
  %48 = getelementptr inbounds nuw %struct.ThreadData, ptr %47, i32 0, i32 1
  %49 = load ptr, ptr %48, align 8, !tbaa !77
  store ptr %49, ptr %15, align 8, !tbaa !60
  call void @llvm.lifetime.start.p0(i64 8, ptr %16) #12
  %50 = load ptr, ptr %14, align 8, !tbaa !60
  %51 = getelementptr inbounds nuw %struct.AVFrame, ptr %50, i32 0, i32 2
  %52 = load ptr, ptr %51, align 8, !tbaa !158
  %53 = load i32, ptr %7, align 4, !tbaa !43
  %54 = sext i32 %53 to i64
  %55 = getelementptr inbounds ptr, ptr %52, i64 %54
  %56 = load ptr, ptr %55, align 8, !tbaa !42
  store ptr %56, ptr %16, align 8, !tbaa !192
  call void @llvm.lifetime.start.p0(i64 8, ptr %17) #12
  call void @llvm.lifetime.start.p0(i64 8, ptr %18) #12
  call void @llvm.lifetime.start.p0(i64 8, ptr %19) #12
  call void @llvm.lifetime.start.p0(i64 8, ptr %20) #12
  %57 = load ptr, ptr %9, align 8, !tbaa !22
  %58 = getelementptr inbounds nuw %struct.AudioIIRContext, ptr %57, i32 0, i32 17
  %59 = load ptr, ptr %58, align 8, !tbaa !47
  %60 = load i32, ptr %7, align 4, !tbaa !43
  %61 = sext i32 %60 to i64
  %62 = getelementptr inbounds %struct.IIRChannel, ptr %59, i64 %61
  %63 = getelementptr inbounds nuw %struct.IIRChannel, ptr %62, i32 0, i32 3
  %64 = getelementptr inbounds [2 x ptr], ptr %63, i64 0, i64 0
  %65 = load ptr, ptr %64, align 8, !tbaa !94
  store ptr %65, ptr %20, align 8, !tbaa !94
  call void @llvm.lifetime.start.p0(i64 4, ptr %21) #12
  %66 = load ptr, ptr %9, align 8, !tbaa !22
  %67 = getelementptr inbounds nuw %struct.AudioIIRContext, ptr %66, i32 0, i32 17
  %68 = load ptr, ptr %67, align 8, !tbaa !47
  %69 = load i32, ptr %7, align 4, !tbaa !43
  %70 = sext i32 %69 to i64
  %71 = getelementptr inbounds %struct.IIRChannel, ptr %68, i64 %70
  %72 = getelementptr inbounds nuw %struct.IIRChannel, ptr %71, i32 0, i32 0
  %73 = getelementptr inbounds [2 x i32], ptr %72, i64 0, i64 1
  %74 = load i32, ptr %73, align 4, !tbaa !43
  store i32 %74, ptr %21, align 4, !tbaa !43
  call void @llvm.lifetime.start.p0(i64 8, ptr %22) #12
  %75 = load ptr, ptr %9, align 8, !tbaa !22
  %76 = getelementptr inbounds nuw %struct.AudioIIRContext, ptr %75, i32 0, i32 17
  %77 = load ptr, ptr %76, align 8, !tbaa !47
  %78 = load i32, ptr %7, align 4, !tbaa !43
  %79 = sext i32 %78 to i64
  %80 = getelementptr inbounds %struct.IIRChannel, ptr %77, i64 %79
  %81 = getelementptr inbounds nuw %struct.IIRChannel, ptr %80, i32 0, i32 1
  %82 = getelementptr inbounds [2 x ptr], ptr %81, i64 0, i64 0
  %83 = load ptr, ptr %82, align 8, !tbaa !94
  store ptr %83, ptr %22, align 8, !tbaa !94
  call void @llvm.lifetime.start.p0(i64 8, ptr %23) #12
  %84 = load ptr, ptr %9, align 8, !tbaa !22
  %85 = getelementptr inbounds nuw %struct.AudioIIRContext, ptr %84, i32 0, i32 17
  %86 = load ptr, ptr %85, align 8, !tbaa !47
  %87 = load i32, ptr %7, align 4, !tbaa !43
  %88 = sext i32 %87 to i64
  %89 = getelementptr inbounds %struct.IIRChannel, ptr %86, i64 %88
  %90 = getelementptr inbounds nuw %struct.IIRChannel, ptr %89, i32 0, i32 1
  %91 = getelementptr inbounds [2 x ptr], ptr %90, i64 0, i64 1
  %92 = load ptr, ptr %91, align 8, !tbaa !94
  store ptr %92, ptr %23, align 8, !tbaa !94
  call void @llvm.lifetime.start.p0(i64 8, ptr %24) #12
  %93 = load ptr, ptr %9, align 8, !tbaa !22
  %94 = getelementptr inbounds nuw %struct.AudioIIRContext, ptr %93, i32 0, i32 17
  %95 = load ptr, ptr %94, align 8, !tbaa !47
  %96 = load i32, ptr %7, align 4, !tbaa !43
  %97 = sext i32 %96 to i64
  %98 = getelementptr inbounds %struct.IIRChannel, ptr %95, i64 %97
  %99 = getelementptr inbounds nuw %struct.IIRChannel, ptr %98, i32 0, i32 2
  %100 = load double, ptr %99, align 8, !tbaa !97
  store double %100, ptr %24, align 8, !tbaa !95
  call void @llvm.lifetime.start.p0(i64 8, ptr %25) #12
  %101 = load ptr, ptr %9, align 8, !tbaa !22
  %102 = getelementptr inbounds nuw %struct.AudioIIRContext, ptr %101, i32 0, i32 17
  %103 = load ptr, ptr %102, align 8, !tbaa !47
  %104 = load i32, ptr %7, align 4, !tbaa !43
  %105 = sext i32 %104 to i64
  %106 = getelementptr inbounds %struct.IIRChannel, ptr %103, i64 %105
  %107 = getelementptr inbounds nuw %struct.IIRChannel, ptr %106, i32 0, i32 6
  store ptr %107, ptr %25, align 8, !tbaa !159
  call void @llvm.lifetime.start.p0(i64 8, ptr %26) #12
  %108 = load ptr, ptr %15, align 8, !tbaa !60
  %109 = getelementptr inbounds nuw %struct.AVFrame, ptr %108, i32 0, i32 2
  %110 = load ptr, ptr %109, align 8, !tbaa !158
  %111 = load i32, ptr %7, align 4, !tbaa !43
  %112 = sext i32 %111 to i64
  %113 = getelementptr inbounds ptr, ptr %110, i64 %112
  %114 = load ptr, ptr %113, align 8, !tbaa !42
  store ptr %114, ptr %26, align 8, !tbaa !192
  call void @llvm.lifetime.start.p0(i64 4, ptr %27) #12
  store i32 0, ptr %27, align 4, !tbaa !43
  br label %115

115:                                              ; preds = %241, %4
  %116 = load i32, ptr %27, align 4, !tbaa !43
  %117 = load ptr, ptr %14, align 8, !tbaa !60
  %118 = getelementptr inbounds nuw %struct.AVFrame, ptr %117, i32 0, i32 5
  %119 = load i32, ptr %118, align 8, !tbaa !69
  %120 = icmp slt i32 %116, %119
  br i1 %120, label %121, label %244

121:                                              ; preds = %115
  call void @llvm.lifetime.start.p0(i64 8, ptr %28) #12
  %122 = load ptr, ptr %16, align 8, !tbaa !192
  %123 = load i32, ptr %27, align 4, !tbaa !43
  %124 = sext i32 %123 to i64
  %125 = getelementptr inbounds i16, ptr %122, i64 %124
  %126 = load i16, ptr %125, align 2, !tbaa !194
  %127 = sext i16 %126 to i32
  %128 = sitofp i32 %127 to double
  %129 = load double, ptr %10, align 8, !tbaa !95
  %130 = fmul nsz double %128, %129
  store double %130, ptr %28, align 8, !tbaa !95
  call void @llvm.lifetime.start.p0(i64 8, ptr %29) #12
  store double 0.000000e+00, ptr %29, align 8, !tbaa !95
  %131 = load double, ptr %28, align 8, !tbaa !95
  store double %131, ptr %18, align 8, !tbaa !95
  call void @llvm.lifetime.start.p0(i64 4, ptr %30) #12
  %132 = load i32, ptr %21, align 4, !tbaa !43
  %133 = sub nsw i32 %132, 1
  store i32 %133, ptr %30, align 4, !tbaa !43
  br label %134

134:                                              ; preds = %179, %121
  %135 = load i32, ptr %30, align 4, !tbaa !43
  %136 = icmp sge i32 %135, 0
  br i1 %136, label %138, label %137

137:                                              ; preds = %134
  call void @llvm.lifetime.end.p0(i64 4, ptr %30) #12
  br label %182

138:                                              ; preds = %134
  %139 = load double, ptr %18, align 8, !tbaa !95
  %140 = load ptr, ptr %23, align 8, !tbaa !94
  %141 = load i32, ptr %30, align 4, !tbaa !43
  %142 = sext i32 %141 to i64
  %143 = getelementptr inbounds double, ptr %140, i64 %142
  %144 = load double, ptr %143, align 8, !tbaa !95
  %145 = load ptr, ptr %20, align 8, !tbaa !94
  %146 = load i32, ptr %30, align 4, !tbaa !43
  %147 = sext i32 %146 to i64
  %148 = getelementptr inbounds double, ptr %145, i64 %147
  %149 = load double, ptr %148, align 8, !tbaa !95
  %150 = fneg nsz double %144
  %151 = call nsz double @llvm.fmuladd.f64(double %150, double %149, double %139)
  store double %151, ptr %17, align 8, !tbaa !95
  %152 = load double, ptr %17, align 8, !tbaa !95
  %153 = load ptr, ptr %23, align 8, !tbaa !94
  %154 = load i32, ptr %30, align 4, !tbaa !43
  %155 = sext i32 %154 to i64
  %156 = getelementptr inbounds double, ptr %153, i64 %155
  %157 = load double, ptr %156, align 8, !tbaa !95
  %158 = load ptr, ptr %20, align 8, !tbaa !94
  %159 = load i32, ptr %30, align 4, !tbaa !43
  %160 = sext i32 %159 to i64
  %161 = getelementptr inbounds double, ptr %158, i64 %160
  %162 = load double, ptr %161, align 8, !tbaa !95
  %163 = call nsz double @llvm.fmuladd.f64(double %152, double %157, double %162)
  store double %163, ptr %19, align 8, !tbaa !95
  %164 = load double, ptr %19, align 8, !tbaa !95
  %165 = load ptr, ptr %22, align 8, !tbaa !94
  %166 = load i32, ptr %30, align 4, !tbaa !43
  %167 = add nsw i32 %166, 1
  %168 = sext i32 %167 to i64
  %169 = getelementptr inbounds double, ptr %165, i64 %168
  %170 = load double, ptr %169, align 8, !tbaa !95
  %171 = load double, ptr %29, align 8, !tbaa !95
  %172 = call nsz double @llvm.fmuladd.f64(double %164, double %170, double %171)
  store double %172, ptr %29, align 8, !tbaa !95
  %173 = load double, ptr %19, align 8, !tbaa !95
  %174 = load ptr, ptr %20, align 8, !tbaa !94
  %175 = load i32, ptr %30, align 4, !tbaa !43
  %176 = sext i32 %175 to i64
  %177 = getelementptr inbounds double, ptr %174, i64 %176
  store double %173, ptr %177, align 8, !tbaa !95
  %178 = load double, ptr %17, align 8, !tbaa !95
  store double %178, ptr %18, align 8, !tbaa !95
  br label %179

179:                                              ; preds = %138
  %180 = load i32, ptr %30, align 4, !tbaa !43
  %181 = add nsw i32 %180, -1
  store i32 %181, ptr %30, align 4, !tbaa !43
  br label %134, !llvm.loop !210

182:                                              ; preds = %137
  %183 = load double, ptr %18, align 8, !tbaa !95
  %184 = load ptr, ptr %22, align 8, !tbaa !94
  %185 = getelementptr inbounds double, ptr %184, i64 0
  %186 = load double, ptr %185, align 8, !tbaa !95
  %187 = load double, ptr %29, align 8, !tbaa !95
  %188 = call nsz double @llvm.fmuladd.f64(double %183, double %186, double %187)
  store double %188, ptr %29, align 8, !tbaa !95
  %189 = load ptr, ptr %20, align 8, !tbaa !94
  %190 = getelementptr inbounds double, ptr %189, i64 1
  %191 = load ptr, ptr %20, align 8, !tbaa !94
  %192 = getelementptr inbounds double, ptr %191, i64 0
  %193 = load i32, ptr %21, align 4, !tbaa !43
  %194 = sext i32 %193 to i64
  %195 = mul i64 %194, 8
  call void @llvm.memmove.p0.p0.i64(ptr align 8 %190, ptr align 8 %192, i64 %195, i1 false)
  %196 = load double, ptr %18, align 8, !tbaa !95
  %197 = load ptr, ptr %20, align 8, !tbaa !94
  %198 = getelementptr inbounds double, ptr %197, i64 0
  store double %196, ptr %198, align 8, !tbaa !95
  %199 = load double, ptr %11, align 8, !tbaa !95
  %200 = load double, ptr %24, align 8, !tbaa !95
  %201 = fmul nsz double %199, %200
  %202 = load double, ptr %29, align 8, !tbaa !95
  %203 = fmul nsz double %202, %201
  store double %203, ptr %29, align 8, !tbaa !95
  %204 = load double, ptr %29, align 8, !tbaa !95
  %205 = load double, ptr %12, align 8, !tbaa !95
  %206 = load double, ptr %28, align 8, !tbaa !95
  %207 = load double, ptr %12, align 8, !tbaa !95
  %208 = fsub nsz double 1.000000e+00, %207
  %209 = fmul nsz double %206, %208
  %210 = call nsz double @llvm.fmuladd.f64(double %204, double %205, double %209)
  store double %210, ptr %29, align 8, !tbaa !95
  %211 = load double, ptr %29, align 8, !tbaa !95
  %212 = fcmp nsz olt double %211, -3.276800e+04
  br i1 %212, label %213, label %221

213:                                              ; preds = %182
  %214 = load ptr, ptr %25, align 8, !tbaa !159
  %215 = load i32, ptr %214, align 4, !tbaa !43
  %216 = add nsw i32 %215, 1
  store i32 %216, ptr %214, align 4, !tbaa !43
  %217 = load ptr, ptr %26, align 8, !tbaa !192
  %218 = load i32, ptr %27, align 4, !tbaa !43
  %219 = sext i32 %218 to i64
  %220 = getelementptr inbounds i16, ptr %217, i64 %219
  store i16 -32768, ptr %220, align 2, !tbaa !194
  br label %240

221:                                              ; preds = %182
  %222 = load double, ptr %29, align 8, !tbaa !95
  %223 = fcmp nsz ogt double %222, 3.276700e+04
  br i1 %223, label %224, label %232

224:                                              ; preds = %221
  %225 = load ptr, ptr %25, align 8, !tbaa !159
  %226 = load i32, ptr %225, align 4, !tbaa !43
  %227 = add nsw i32 %226, 1
  store i32 %227, ptr %225, align 4, !tbaa !43
  %228 = load ptr, ptr %26, align 8, !tbaa !192
  %229 = load i32, ptr %27, align 4, !tbaa !43
  %230 = sext i32 %229 to i64
  %231 = getelementptr inbounds i16, ptr %228, i64 %230
  store i16 32767, ptr %231, align 2, !tbaa !194
  br label %239

232:                                              ; preds = %221
  %233 = load double, ptr %29, align 8, !tbaa !95
  %234 = fptosi double %233 to i16
  %235 = load ptr, ptr %26, align 8, !tbaa !192
  %236 = load i32, ptr %27, align 4, !tbaa !43
  %237 = sext i32 %236 to i64
  %238 = getelementptr inbounds i16, ptr %235, i64 %237
  store i16 %234, ptr %238, align 2, !tbaa !194
  br label %239

239:                                              ; preds = %232, %224
  br label %240

240:                                              ; preds = %239, %213
  call void @llvm.lifetime.end.p0(i64 8, ptr %29) #12
  call void @llvm.lifetime.end.p0(i64 8, ptr %28) #12
  br label %241

241:                                              ; preds = %240
  %242 = load i32, ptr %27, align 4, !tbaa !43
  %243 = add nsw i32 %242, 1
  store i32 %243, ptr %27, align 4, !tbaa !43
  br label %115, !llvm.loop !211

244:                                              ; preds = %115
  call void @llvm.lifetime.end.p0(i64 4, ptr %27) #12
  call void @llvm.lifetime.end.p0(i64 8, ptr %26) #12
  call void @llvm.lifetime.end.p0(i64 8, ptr %25) #12
  call void @llvm.lifetime.end.p0(i64 8, ptr %24) #12
  call void @llvm.lifetime.end.p0(i64 8, ptr %23) #12
  call void @llvm.lifetime.end.p0(i64 8, ptr %22) #12
  call void @llvm.lifetime.end.p0(i64 4, ptr %21) #12
  call void @llvm.lifetime.end.p0(i64 8, ptr %20) #12
  call void @llvm.lifetime.end.p0(i64 8, ptr %19) #12
  call void @llvm.lifetime.end.p0(i64 8, ptr %18) #12
  call void @llvm.lifetime.end.p0(i64 8, ptr %17) #12
  call void @llvm.lifetime.end.p0(i64 8, ptr %16) #12
  call void @llvm.lifetime.end.p0(i64 8, ptr %15) #12
  call void @llvm.lifetime.end.p0(i64 8, ptr %14) #12
  call void @llvm.lifetime.end.p0(i64 8, ptr %13) #12
  call void @llvm.lifetime.end.p0(i64 8, ptr %12) #12
  call void @llvm.lifetime.end.p0(i64 8, ptr %11) #12
  call void @llvm.lifetime.end.p0(i64 8, ptr %10) #12
  call void @llvm.lifetime.end.p0(i64 8, ptr %9) #12
  ret i32 0
}